; Function Attrs: mustprogress sspstrong uwtable
define noundef zeroext i1 @_ZN3tbb6detail2r122threading_control_impl26is_any_other_client_activeEv(ptr noundef nonnull readonly align 8 captures(none) dereferenceable(40) %0) local_unnamed_addr #0 align 2 {
  %2 = getelementptr inbounds nuw i8, ptr %0, i64 16
  %3 = load ptr, ptr %2, align 8, !tbaa !54
  %4 = tail call noundef i32 @_ZN3tbb6detail2r131thread_request_serializer_proxy21num_workers_requestedEv(ptr noundef nonnull align 8 dereferenceable(64) %3)
  %5 = icmp sgt i32 %4, 0
  br i1 %5, label %6, label %10

6:                                                ; preds = %1
  %7 = getelementptr inbounds nuw i8, ptr %0, i64 8
  %8 = load ptr, ptr %7, align 8, !tbaa !25
  %9 = tail call noundef zeroext i1 @_ZN3tbb6detail2r117thread_dispatcher21is_any_client_in_needEv(ptr noundef nonnull align 8 dereferenceable(152) %8)
  br label %10

10:                                               ; preds = %1, %6
  %11 = phi i1 [ %9, %6 ], [ false, %1 ]
  ret i1 %11
}